target datalayout = "e-m:e-p270:32:32-p271:32:32-p272:64:64-i64:64-i128:128-f80:128-n8:16:32:64-S128"
target triple = "x86_64-pc-linux-gnu"

%struct.wpacket_st = type { ptr, ptr, i64, i64, i64, ptr, i8 }
%struct.wpacket_sub = type { ptr, i64, i64, i64, i32 }

@.str = private unnamed_addr constant [27 x i8] c"../openssl/crypto/packet.c\00", align 1

; Function Attrs: nounwind uwtable
define dso_local i32 @WPACKET_start_sub_packet_len__(ptr noundef %0, i64 noundef %1) #0 {
  %3 = alloca i32, align 4
  %4 = alloca ptr, align 8
  %5 = alloca i64, align 8
  %6 = alloca ptr, align 8
  %7 = alloca ptr, align 8
  %8 = alloca i32, align 4
  store ptr %0, ptr %4, align 8, !tbaa !4
  store i64 %1, ptr %5, align 8, !tbaa !9
  call void @llvm.lifetime.start.p0(i64 8, ptr %6) #7
  call void @llvm.lifetime.start.p0(i64 8, ptr %7) #7
  %9 = load ptr, ptr %4, align 8, !tbaa !4
  %10 = getelementptr inbounds nuw %struct.wpacket_st, ptr %9, i32 0, i32 5
  %11 = load ptr, ptr %10, align 8, !tbaa !20
  %12 = icmp ne ptr %11, null
  %13 = zext i1 %12 to i32
  %14 = icmp ne i32 %13, 0
  %15 = xor i1 %14, true
  %16 = xor i1 %15, true
  %17 = zext i1 %16 to i32
  %18 = sext i32 %17 to i64
  %19 = call i64 @llvm.expect.i64(i64 %18, i64 1)
  %20 = icmp ne i64 %19, 0
  br i1 %20, label %22, label %21

21:                                               ; preds = %2
  store i32 0, ptr %3, align 4
  store i32 1, ptr %8, align 4
  br label %73

22:                                               ; preds = %2
  %23 = load i64, ptr %5, align 8, !tbaa !9
  %24 = icmp ugt i64 %23, 0
  br i1 %24, label %25, label %33

25:                                               ; preds = %22
  %26 = load ptr, ptr %4, align 8, !tbaa !4
  %27 = getelementptr inbounds nuw %struct.wpacket_st, ptr %26, i32 0, i32 6
  %28 = load i8, ptr %27, align 8
  %29 = and i8 %28, 1
  %30 = zext i8 %29 to i32
  %31 = icmp ne i32 %30, 0
  br i1 %31, label %32, label %33

32:                                               ; preds = %25
  store i32 0, ptr %3, align 4
  store i32 1, ptr %8, align 4
  br label %73

33:                                               ; preds = %25, %22
  %34 = call noalias ptr @CRYPTO_zalloc(i64 noundef 40, ptr noundef @.str, i32 noundef 379)
  store ptr %34, ptr %6, align 8, !tbaa !26
  %35 = icmp eq ptr %34, null
  br i1 %35, label %36, label %37

36:                                               ; preds = %33
  store i32 0, ptr %3, align 4
  store i32 1, ptr %8, align 4
  br label %73

37:                                               ; preds = %33
  %38 = load ptr, ptr %4, align 8, !tbaa !4
  %39 = getelementptr inbounds nuw %struct.wpacket_st, ptr %38, i32 0, i32 5
  %40 = load ptr, ptr %39, align 8, !tbaa !20
  %41 = load ptr, ptr %6, align 8, !tbaa !26
  %42 = getelementptr inbounds nuw %struct.wpacket_sub, ptr %41, i32 0, i32 0
  store ptr %40, ptr %42, align 8, !tbaa !27
  %43 = load ptr, ptr %6, align 8, !tbaa !26
  %44 = load ptr, ptr %4, align 8, !tbaa !4
  %45 = getelementptr inbounds nuw %struct.wpacket_st, ptr %44, i32 0, i32 5
  store ptr %43, ptr %45, align 8, !tbaa !20
  %46 = load ptr, ptr %4, align 8, !tbaa !4
  %47 = getelementptr inbounds nuw %struct.wpacket_st, ptr %46, i32 0, i32 3
  %48 = load i64, ptr %47, align 8, !tbaa !13
  %49 = load i64, ptr %5, align 8, !tbaa !9
  %50 = add i64 %48, %49
  %51 = load ptr, ptr %6, align 8, !tbaa !26
  %52 = getelementptr inbounds nuw %struct.wpacket_sub, ptr %51, i32 0, i32 3
  store i64 %50, ptr %52, align 8, !tbaa !29
  %53 = load i64, ptr %5, align 8, !tbaa !9
  %54 = load ptr, ptr %6, align 8, !tbaa !26
  %55 = getelementptr inbounds nuw %struct.wpacket_sub, ptr %54, i32 0, i32 2
  store i64 %53, ptr %55, align 8, !tbaa !30
  %56 = load i64, ptr %5, align 8, !tbaa !9
  %57 = icmp eq i64 %56, 0
  br i1 %57, label %58, label %61

58:                                               ; preds = %37
  %59 = load ptr, ptr %6, align 8, !tbaa !26
  %60 = getelementptr inbounds nuw %struct.wpacket_sub, ptr %59, i32 0, i32 1
  store i64 0, ptr %60, align 8, !tbaa !31
  store i32 1, ptr %3, align 4
  store i32 1, ptr %8, align 4
  br label %73

61:                                               ; preds = %37
  %62 = load ptr, ptr %4, align 8, !tbaa !4
  %63 = getelementptr inbounds nuw %struct.wpacket_st, ptr %62, i32 0, i32 3
  %64 = load i64, ptr %63, align 8, !tbaa !13
  %65 = load ptr, ptr %6, align 8, !tbaa !26
  %66 = getelementptr inbounds nuw %struct.wpacket_sub, ptr %65, i32 0, i32 1
  store i64 %64, ptr %66, align 8, !tbaa !31
  %67 = load ptr, ptr %4, align 8, !tbaa !4
  %68 = load i64, ptr %5, align 8, !tbaa !9
  %69 = call i32 @WPACKET_allocate_bytes(ptr noundef %67, i64 noundef %68, ptr noundef %7)
  %70 = icmp ne i32 %69, 0
  br i1 %70, label %72, label %71

71:                                               ; preds = %61
  store i32 0, ptr %3, align 4
  store i32 1, ptr %8, align 4
  br label %73

72:                                               ; preds = %61
  store i32 1, ptr %3, align 4
  store i32 1, ptr %8, align 4
  br label %73

73:                                               ; preds = %72, %71, %58, %36, %32, %21
  call void @llvm.lifetime.end.p0(i64 8, ptr %7) #7
  call void @llvm.lifetime.end.p0(i64 8, ptr %6) #7
  %74 = load i32, ptr %3, align 4
  ret i32 %74
}

; Function Attrs: inlinehint nounwind uwtable
define internal i64 @ossl_quic_vlint_encode_len(i64 noundef %0) #6 {
  %2 = alloca i64, align 8
  %3 = alloca i64, align 8
  store i64 %0, ptr %3, align 8, !tbaa !9
  %4 = load i64, ptr %3, align 8, !tbaa !9
  %5 = icmp ult i64 %4, 64
  br i1 %5, label %6, label %7

6:                                                ; preds = %1
  store i64 1, ptr %2, align 8
  br label %20

7:                                                ; preds = %1
  %8 = load i64, ptr %3, align 8, !tbaa !9
  %9 = icmp ult i64 %8, 16384
  br i1 %9, label %10, label %11

10:                                               ; preds = %7
  store i64 2, ptr %2, align 8
  br label %20

11:                                               ; preds = %7
  %12 = load i64, ptr %3, align 8, !tbaa !9
  %13 = icmp ult i64 %12, 1073741824
  br i1 %13, label %14, label %15

14:                                               ; preds = %11
  store i64 4, ptr %2, align 8
  br label %20

15:                                               ; preds = %11
  %16 = load i64, ptr %3, align 8, !tbaa !9
  %17 = icmp ule i64 %16, 4611686018427387903
  br i1 %17, label %18, label %19

18:                                               ; preds = %15
  store i64 8, ptr %2, align 8
  br label %20

19:                                               ; preds = %15
  store i64 0, ptr %2, align 8
  br label %20

20:                                               ; preds = %19, %18, %14, %10, %6
  %21 = load i64, ptr %2, align 8
  ret i64 %21
}

; Function Attrs: nounwind uwtable
define dso_local i32 @WPACKET_close(ptr noundef %0) #0 {
  %2 = alloca i32, align 4
  %3 = alloca ptr, align 8
  store ptr %0, ptr %3, align 8, !tbaa !4
  %4 = load ptr, ptr %3, align 8, !tbaa !4
  %5 = getelementptr inbounds nuw %struct.wpacket_st, ptr %4, i32 0, i32 5
  %6 = load ptr, ptr %5, align 8, !tbaa !20
  %7 = icmp eq ptr %6, null
  br i1 %7, label %15, label %8

8:                                                ; preds = %1
  %9 = load ptr, ptr %3, align 8, !tbaa !4
  %10 = getelementptr inbounds nuw %struct.wpacket_st, ptr %9, i32 0, i32 5
  %11 = load ptr, ptr %10, align 8, !tbaa !20
  %12 = getelementptr inbounds nuw %struct.wpacket_sub, ptr %11, i32 0, i32 0
  %13 = load ptr, ptr %12, align 8, !tbaa !27
  %14 = icmp eq ptr %13, null
  br i1 %14, label %15, label %16

15:                                               ; preds = %8, %1
  store i32 0, ptr %2, align 4
  br label %22

16:                                               ; preds = %8
  %17 = load ptr, ptr %3, align 8, !tbaa !4
  %18 = load ptr, ptr %3, align 8, !tbaa !4
  %19 = getelementptr inbounds nuw %struct.wpacket_st, ptr %18, i32 0, i32 5
  %20 = load ptr, ptr %19, align 8, !tbaa !20
  %21 = call i32 @wpacket_intern_close(ptr noundef %17, ptr noundef %20, i32 noundef 1)
  store i32 %21, ptr %2, align 4
  br label %22

22:                                               ; preds = %16, %15
  %23 = load i32, ptr %2, align 4
  ret i32 %23
}

; Function Attrs: nounwind uwtable
define dso_local i32 @WPACKET_start_quic_sub_packet_bound(ptr noundef %0, i64 noundef %1) #0 {
  %3 = alloca i32, align 4
  %4 = alloca ptr, align 8
  %5 = alloca i64, align 8
  %6 = alloca i64, align 8
  %7 = alloca i32, align 4
  store ptr %0, ptr %4, align 8, !tbaa !4
  store i64 %1, ptr %5, align 8, !tbaa !9
  call void @llvm.lifetime.start.p0(i64 8, ptr %6) #7
  %8 = load i64, ptr %5, align 8, !tbaa !9
  %9 = call i64 @ossl_quic_vlint_encode_len(i64 noundef %8)
  store i64 %9, ptr %6, align 8, !tbaa !9
  %10 = load i64, ptr %6, align 8, !tbaa !9
  %11 = icmp eq i64 %10, 0
  br i1 %11, label %12, label %13

12:                                               ; preds = %2
  store i32 0, ptr %3, align 4
  store i32 1, ptr %7, align 4
  br label %26

13:                                               ; preds = %2
  %14 = load ptr, ptr %4, align 8, !tbaa !4
  %15 = load i64, ptr %6, align 8, !tbaa !9
  %16 = call i32 @WPACKET_start_sub_packet_len__(ptr noundef %14, i64 noundef %15)
  %17 = icmp eq i32 %16, 0
  br i1 %17, label %18, label %19

18:                                               ; preds = %13
  store i32 0, ptr %3, align 4
  store i32 1, ptr %7, align 4
  br label %26

19:                                               ; preds = %13
  %20 = load ptr, ptr %4, align 8, !tbaa !4
  %21 = getelementptr inbounds nuw %struct.wpacket_st, ptr %20, i32 0, i32 5
  %22 = load ptr, ptr %21, align 8, !tbaa !20
  %23 = getelementptr inbounds nuw %struct.wpacket_sub, ptr %22, i32 0, i32 4
  %24 = load i32, ptr %23, align 8, !tbaa !36
  %25 = or i32 %24, 4
  store i32 %25, ptr %23, align 8, !tbaa !36
  store i32 1, ptr %3, align 4
  store i32 1, ptr %7, align 4
  br label %26

26:                                               ; preds = %19, %18, %12
  call void @llvm.lifetime.end.p0(i64 8, ptr %6) #7
  %27 = load i32, ptr %3, align 4
  ret i32 %27
}

; Function Attrs: nounwind uwtable
define dso_local i32 @WPACKET_quic_sub_allocate_bytes(ptr noundef %0, i64 noundef %1, ptr noundef %2) #0 {
  %4 = alloca i32, align 4
  %5 = alloca ptr, align 8
  %6 = alloca i64, align 8
  %7 = alloca ptr, align 8
  store ptr %0, ptr %5, align 8, !tbaa !4
  store i64 %1, ptr %6, align 8, !tbaa !9
  store ptr %2, ptr %7, align 8, !tbaa !11
  %8 = load ptr, ptr %5, align 8, !tbaa !4
  %9 = load i64, ptr %6, align 8, !tbaa !9
  %10 = call i32 @WPACKET_start_quic_sub_packet_bound(ptr noundef %8, i64 noundef %9)
  %11 = icmp ne i32 %10, 0
  br i1 %11, label %12, label %22

12:                                               ; preds = %3
  %13 = load ptr, ptr %5, align 8, !tbaa !4
  %14 = load i64, ptr %6, align 8, !tbaa !9
  %15 = load ptr, ptr %7, align 8, !tbaa !11
  %16 = call i32 @WPACKET_allocate_bytes(ptr noundef %13, i64 noundef %14, ptr noundef %15)
  %17 = icmp ne i32 %16, 0
  br i1 %17, label %18, label %22

18:                                               ; preds = %12
  %19 = load ptr, ptr %5, align 8, !tbaa !4
  %20 = call i32 @WPACKET_close(ptr noundef %19)
  %21 = icmp ne i32 %20, 0
  br i1 %21, label %23, label %22

22:                                               ; preds = %18, %12, %3
  store i32 0, ptr %4, align 4
  br label %24

23:                                               ; preds = %18
  store i32 1, ptr %4, align 4
  br label %24

24:                                               ; preds = %23, %22
  %25 = load i32, ptr %4, align 4
  ret i32 %25
}