; Function Attrs: nounwind uwtable
define dso_local range(i32 0, 2) i32 @WPACKET_quic_sub_allocate_bytes(ptr noundef captures(none) %0, i64 noundef %1, ptr noundef captures(address_is_null) %2) local_unnamed_addr #0 {
  %4 = alloca ptr, align 8
  %5 = icmp ult i64 %1, 64
  br i1 %5, label %select.unfold.i, label %6

6:                                                ; preds = %3
  %7 = icmp ult i64 %1, 16384
  br i1 %7, label %select.unfold.i, label %8

8:                                                ; preds = %6
  %9 = icmp ult i64 %1, 1073741824
  br i1 %9, label %select.unfold.i, label %10

10:                                               ; preds = %8
  %11 = icmp ult i64 %1, 4611686018427387904
  br i1 %11, label %select.unfold.i, label %WPACKET_start_quic_sub_packet_bound.exit.thread

select.unfold.i:                                  ; preds = %10, %8, %6, %3
  %.0.i.ph.i = phi i64 [ 4, %8 ], [ 2, %6 ], [ 1, %3 ], [ 8, %10 ]
  call void @llvm.lifetime.start.p0(i64 8, ptr nonnull %4) #12
  %12 = getelementptr inbounds nuw i8, ptr %0, i64 40
  %13 = load ptr, ptr %12, align 8, !tbaa !4
  %.not.i.i = icmp eq ptr %13, null
  br i1 %.not.i.i, label %WPACKET_start_sub_packet_len__.exit.thread.i, label %14, !prof !24

14:                                               ; preds = %select.unfold.i
  %15 = getelementptr inbounds nuw i8, ptr %0, i64 48
  %16 = load i8, ptr %15, align 8
  %17 = and i8 %16, 1
  %.not21.i.i = icmp eq i8 %17, 0
  br i1 %.not21.i.i, label %18, label %WPACKET_start_sub_packet_len__.exit.thread.i

18:                                               ; preds = %14
  %19 = tail call noalias ptr @CRYPTO_zalloc(i64 noundef 40, ptr noundef nonnull @.str, i32 noundef 379) #12
  %20 = icmp eq ptr %19, null
  br i1 %20, label %WPACKET_start_sub_packet_len__.exit.thread.i, label %WPACKET_start_sub_packet_len__.exit.i

WPACKET_start_sub_packet_len__.exit.thread.i:     ; preds = %18, %14, %select.unfold.i
  call void @llvm.lifetime.end.p0(i64 8, ptr nonnull %4) #12
  br label %WPACKET_start_quic_sub_packet_bound.exit.thread

WPACKET_start_sub_packet_len__.exit.i:            ; preds = %18
  %21 = load ptr, ptr %12, align 8, !tbaa !4
  store ptr %21, ptr %19, align 8, !tbaa !25
  store ptr %19, ptr %12, align 8, !tbaa !4
  %22 = getelementptr inbounds nuw i8, ptr %0, i64 24
  %23 = load i64, ptr %22, align 8, !tbaa !16
  %24 = add i64 %23, %.0.i.ph.i
  %25 = getelementptr inbounds nuw i8, ptr %19, i64 24
  store i64 %24, ptr %25, align 8, !tbaa !27
  %26 = getelementptr inbounds nuw i8, ptr %19, i64 16
  store i64 %.0.i.ph.i, ptr %26, align 8, !tbaa !28
  %27 = getelementptr inbounds nuw i8, ptr %19, i64 8
  store i64 %23, ptr %27, align 8, !tbaa !29
  %28 = call i32 @WPACKET_allocate_bytes(ptr noundef nonnull %0, i64 noundef %.0.i.ph.i, ptr noundef nonnull %4)
  call void @llvm.lifetime.end.p0(i64 8, ptr nonnull %4) #12
  %29 = icmp eq i32 %28, 0
  br i1 %29, label %WPACKET_start_quic_sub_packet_bound.exit.thread, label %30

30:                                               ; preds = %WPACKET_start_sub_packet_len__.exit.i
  %31 = load ptr, ptr %12, align 8, !tbaa !4
  %32 = getelementptr inbounds nuw i8, ptr %31, i64 32
  %33 = load i32, ptr %32, align 8, !tbaa !30
  %34 = or i32 %33, 4
  store i32 %34, ptr %32, align 8, !tbaa !30
  %35 = call i32 @WPACKET_allocate_bytes(ptr noundef nonnull %0, i64 noundef %1, ptr noundef %2)
  %.not6 = icmp eq i32 %35, 0
  br i1 %.not6, label %WPACKET_start_quic_sub_packet_bound.exit.thread, label %36

36:                                               ; preds = %30
  %37 = load ptr, ptr %12, align 8, !tbaa !4
  %38 = icmp eq ptr %37, null
  br i1 %38, label %WPACKET_close.exit.thread, label %39

39:                                               ; preds = %36
  %40 = load ptr, ptr %37, align 8, !tbaa !25
  %41 = icmp eq ptr %40, null
  br i1 %41, label %WPACKET_close.exit.thread, label %WPACKET_close.exit

WPACKET_close.exit:                               ; preds = %39
  %42 = call fastcc i32 @wpacket_intern_close(ptr noundef nonnull %0, ptr noundef %37, i32 noundef 1)
  %.fr = freeze i32 %42
  %.not7 = icmp eq i32 %.fr, 0
  br i1 %.not7, label %WPACKET_close.exit.thread, label %WPACKET_start_quic_sub_packet_bound.exit.thread

WPACKET_close.exit.thread:                        ; preds = %36, %39, %WPACKET_close.exit
  br label %WPACKET_start_quic_sub_packet_bound.exit.thread

WPACKET_start_quic_sub_packet_bound.exit.thread:  ; preds = %WPACKET_start_sub_packet_len__.exit.thread.i, %10, %WPACKET_start_sub_packet_len__.exit.i, %WPACKET_close.exit.thread, %WPACKET_close.exit, %30
  %.0 = phi i32 [ 0, %30 ], [ 0, %WPACKET_close.exit.thread ], [ 1, %WPACKET_close.exit ], [ 0, %WPACKET_start_sub_packet_len__.exit.i ], [ 0, %10 ], [ 0, %WPACKET_start_sub_packet_len__.exit.thread.i ]
  ret i32 %.0
}